; Function Attrs: nounwind uwtable
define range(i32 0, 2) i32 @ossl_method_store_cache_flush_all(ptr noundef captures(address_is_null) %0) local_unnamed_addr #0 {
  %.not.i = icmp eq ptr %0, null
  br i1 %.not.i, label %ossl_property_write_lock.exit.thread, label %ossl_property_write_lock.exit

ossl_property_write_lock.exit:                    ; preds = %1
  %2 = getelementptr inbounds nuw i8, ptr %0, i64 16
  %3 = load ptr, ptr %2, align 8, !tbaa !16
  %4 = tail call i32 @CRYPTO_THREAD_write_lock(ptr noundef %3) #7
  %.not = icmp eq i32 %4, 0
  br i1 %.not, label %ossl_property_write_lock.exit.thread, label %ossl_property_unlock.exit

ossl_property_unlock.exit:                        ; preds = %ossl_property_write_lock.exit
  %5 = getelementptr inbounds nuw i8, ptr %0, i64 8
  %6 = load ptr, ptr %5, align 8, !tbaa !15
  tail call void @ossl_sa_doall(ptr noundef %6, ptr noundef nonnull @impl_cache_flush_alg) #7
  %7 = getelementptr inbounds nuw i8, ptr %0, i64 32
  store i64 0, ptr %7, align 8, !tbaa !31
  %8 = load ptr, ptr %2, align 8, !tbaa !16
  %9 = tail call i32 @CRYPTO_THREAD_unlock(ptr noundef %8) #7
  br label %ossl_property_write_lock.exit.thread

ossl_property_write_lock.exit.thread:             ; preds = %1, %ossl_property_write_lock.exit, %ossl_property_unlock.exit
  %.0 = phi i32 [ 1, %ossl_property_unlock.exit ], [ 0, %ossl_property_write_lock.exit ], [ 0, %1 ]
  ret i32 %.0
}